Certificate:
    Data:
        Version: 3 (0x2)
        Serial Number: 1 (0x1)
    Signature Algorithm: sha1WithRSAEncryption
        Issuer: DC=io, DC=realm, O=Realm, OU=Realm Test Root CA, CN=Realm Test Root CA
        Validity
            Not Before: Sep  7 09:42:23 2016 GMT
            Not After : Sep  7 09:42:23 2026 GMT
        Subject: DC=io, DC=realm, O=Realm, OU=Realm Test Root CA, CN=Realm Test Root CA
        Subject Public Key Info:
            Public Key Algorithm: rsaEncryption
                Public-Key: (4096 bit)
                Modulus:
                    00:dc:43:b2:92:b1:be:ff:da:43:f3:b8:d5:4b:42:
                    9e:05:7f:4e:bf:09:2f:02:33:1a:24:44:ff:12:7e:
                    35:9c:cd:b3:61:78:0a:b0:83:80:82:ec:a2:5c:66:
                    f0:7d:d4:df:f9:9c:be:b5:4e:e6:6b:60:59:e7:ed:
                    0f:85:47:2e:83:5a:55:c1:1a:32:a9:c8:b8:d4:5a:
                    96:94:ef:4f:f1:aa:64:59:c8:8c:89:1a:e6:1a:f4:
                    94:5c:e8:be:59:0f:6b:cc:9d:58:e5:e4:29:22:ba:
                    54:96:dd:8a:f6:28:d6:d6:c8:ca:df:b2:c2:f7:1e:
                    19:58:75:ab:a2:ab:04:e4:1f:ed:fe:04:ec:f2:f1:
                    da:62:d2:bd:9b:4b:84:ba:d0:5e:dc:63:40:03:cc:
                    c6:88:1c:15:5c:96:41:b0:58:3d:af:08:bd:64:34:
                    b8:3b:00:03:28:21:37:bf:5c:bc:1c:e7:2d:08:a5:
                    02:ad:c0:49:ba:34:56:8e:63:66:ba:60:8c:5c:89:
                    ba:0f:76:47:9c:bc:31:6a:5d:8e:4d:a9:4d:74:c7:
                    18:29:b1:9f:08:98:0b:ff:13:5b:58:52:0b:85:f1:
                    b0:fe:be:3f:ba:ea:5e:50:2f:ea:1d:85:1f:c2:87:
                    2a:70:14:05:3d:70:6c:e3:c7:a7:81:6b:3e:11:67:
                    bf:b4:9e:26:a4:57:df:16:0a:f3:83:7c:fb:64:e3:
                    33:9f:08:55:25:de:1e:93:e6:13:0a:38:94:33:0c:
                    40:87:f7:c7:69:1c:1d:5b:aa:0e:8e:e7:8f:ae:36:
                    07:5b:1b:7d:c3:5c:13:20:c6:01:7b:9b:f2:f6:c7:
                    ec:82:5d:33:75:cb:5b:b1:6b:be:96:36:f6:c4:1d:
                    83:eb:88:dd:9a:ae:92:ea:ee:0f:20:8a:d6:c1:04:
                    24:c8:4b:6a:89:0e:c5:46:4c:f9:79:2a:7a:60:7a:
                    4a:72:9a:82:03:d2:75:c6:10:fb:d3:00:3b:6b:13:
                    bc:f5:fe:83:94:40:18:a1:97:46:8c:5e:5b:ae:4a:
                    c5:93:74:a5:9f:1e:d2:64:13:b0:d6:83:60:4e:69:
                    f7:16:05:0b:e9:45:ec:b9:52:78:12:53:60:d7:88:
                    f5:58:75:20:e4:ab:4a:e3:cb:b1:5d:82:57:4c:3f:
                    47:44:70:90:06:a7:70:14:3c:6b:83:f9:28:07:12:
                    81:f6:70:02:24:2d:52:70:01:96:1c:77:29:67:6c:
                    5e:80:d8:51:fd:e5:43:5d:60:ad:2c:5f:95:aa:74:
                    2d:f2:8e:43:30:e9:67:eb:c7:65:0a:4b:3b:b0:3f:
                    ae:85:da:30:26:2a:b8:20:11:b3:92:9a:8a:d0:13:
                    e6:d7:23
                Exponent: 65537 (0x10001)
        X509v3 extensions:
            X509v3 Key Usage: critical
                Certificate Sign, CRL Sign
            X509v3 Basic Constraints: critical
                CA:TRUE
            X509v3 Subject Key Identifier: 
                84:70:71:2C:04:3B:D0:92:83:B5:FB:7C:7F:B0:61:0C:62:16:71:74
            X509v3 Authority Key Identifier: 
                keyid:84:70:71:2C:04:3B:D0:92:83:B5:FB:7C:7F:B0:61:0C:62:16:71:74

    Signature Algorithm: sha1WithRSAEncryption
         6c:35:e0:07:db:3a:15:30:00:7f:38:fd:6d:b7:7a:85:84:87:
         1b:72:78:33:ee:00:81:c0:51:33:6f:f3:a8:e8:3b:30:fd:ef:
         19:c5:d2:95:83:b7:80:8f:1b:79:ff:ac:e6:f2:f5:f6:a0:71:
         16:57:72:58:1a:75:e4:4c:3d:b3:4b:b5:3d:8c:d9:66:1a:5f:
         7c:c0:2c:1f:2c:0a:3e:fb:84:20:ce:c8:7d:8e:9b:e6:fe:4b:
         06:af:10:4f:db:97:3c:cd:04:df:3c:2f:c2:c6:29:c0:70:19:
         b3:5a:9e:fe:0f:7d:83:95:83:a5:db:01:d8:c4:91:6f:ee:25:
         6b:cd:8e:2e:b2:69:88:1f:e9:57:ef:4c:c4:18:cd:d2:42:4e:
         c1:19:bd:8d:c9:4e:e7:b3:05:fa:6e:c5:32:0a:c3:f0:bd:ec:
         d3:44:d4:80:08:26:2d:12:cb:1b:a4:9d:09:ca:0b:02:eb:5a:
         b6:54:51:ac:90:63:77:76:6f:33:35:fe:87:db:d2:c0:bc:ea:
         5b:c5:9b:e9:4c:c2:82:28:a7:4f:62:df:18:4f:1c:8b:93:7a:
         f3:32:89:0a:3e:c1:bd:8a:45:29:f8:7f:18:4c:a1:77:e1:e2:
         b4:eb:50:31:6b:77:d5:78:12:95:c9:02:d7:61:03:13:6e:be:
         fe:dd:83:35:2b:4c:dc:45:81:6f:16:7f:29:b8:6f:bb:6d:f6:
         15:6d:3b:d2:14:f9:94:24:86:df:4e:b7:9e:93:2e:94:25:e6:
         b1:b5:c0:96:c9:a3:56:cf:95:15:7f:43:41:f0:3e:c2:ed:8d:
         16:c1:7b:db:ff:38:48:08:b4:39:43:81:65:31:ba:78:d1:77:
         e9:1a:f0:5a:18:05:db:db:91:ca:e8:f9:8c:2e:6e:a9:8c:ba:
         69:96:01:2e:fa:6a:f5:de:bf:1c:53:ca:14:2a:91:0b:2a:f2:
         fa:b9:07:eb:6d:9d:59:ae:08:6b:fa:61:95:75:9c:76:4b:22:
         a7:0c:c4:66:e7:aa:9e:da:84:76:fc:8e:50:59:c2:55:b8:e1:
         01:e5:54:85:7f:32:4f:63:e0:74:77:96:ae:6b:35:db:0a:0c:
         da:27:3b:c7:c8:3b:ba:d4:41:3a:aa:5c:ed:71:0b:10:88:05:
         9e:21:c5:99:c3:3a:e2:a2:de:f9:f5:c6:ce:9a:16:be:18:41:
         24:14:ee:47:76:f2:db:b1:98:f2:0e:fd:18:ae:a7:f0:f1:55:
         56:7a:9a:f2:84:50:77:f2:08:c7:f4:3f:f5:1b:03:97:49:41:
         e3:a1:2b:c3:ee:f5:bc:bc:9d:2b:38:39:10:74:5b:18:92:2a:
         fa:c0:4b:46:c0:ff:46:56
-----BEGIN CERTIFICATE-----
MIIFyDCCA7CgAwIBAgIBATANBgkqhkiG9w0BAQUFADB1MRIwEAYKCZImiZPyLGQB
GRYCaW8xFTATBgoJkiaJk/IsZAEZFgVyZWFsbTEOMAwGA1UECgwFUmVhbG0xGzAZ
BgNVBAsMElJlYWxtIFRlc3QgUm9vdCBDQTEbMBkGA1UEAwwSUmVhbG0gVGVzdCBS
b290IENBMB4XDTE2MDkwNzA5NDIyM1oXDTI2MDkwNzA5NDIyM1owdTESMBAGCgmS
JomT8ixkARkWAmlvMRUwEwYKCZImiZPyLGQBGRYFcmVhbG0xDjAMBgNVBAoMBVJl
YWxtMRswGQYDVQQLDBJSZWFsbSBUZXN0IFJvb3QgQ0ExGzAZBgNVBAMMElJlYWxt
IFRlc3QgUm9vdCBDQTCCAiIwDQYJKoZIhvcNAQEBBQADggIPADCCAgoCggIBANxD
spKxvv/aQ/O41UtCngV/Tr8JLwIzGiRE/xJ+NZzNs2F4CrCDgILsolxm8H3U3/mc
vrVO5mtgWeftD4VHLoNaVcEaMqnIuNRalpTvT/GqZFnIjIka5hr0lFzovlkPa8yd
WOXkKSK6VJbdivYo1tbIyt+ywvceGVh1q6KrBOQf7f4E7PLx2mLSvZtLhLrQXtxj
QAPMxogcFVyWQbBYPa8IvWQ0uDsAAyghN79cvBznLQilAq3ASbo0Vo5jZrpgjFyJ
ug92R5y8MWpdjk2pTXTHGCmxnwiYC/8TW1hSC4XxsP6+P7rqXlAv6h2FH8KHKnAU
BT1wbOPHp4FrPhFnv7SeJqRX3xYK84N8+2TjM58IVSXeHpPmEwo4lDMMQIf3x2kc
HVuqDo7nj642B1sbfcNcEyDGAXub8vbH7IJdM3XLW7FrvpY29sQdg+uI3Zqukuru
DyCK1sEEJMhLaokOxUZM+XkqemB6SnKaggPSdcYQ+9MAO2sTvPX+g5RAGKGXRoxe
W65KxZN0pZ8e0mQTsNaDYE5p9xYFC+lF7LlSeBJTYNeI9Vh1IOSrSuPLsV2CV0w/
R0RwkAancBQ8a4P5KAcSgfZwAiQtUnABlhx3KWdsXoDYUf3lQ11grSxflap0LfKO
QzDpZ+vHZQpLO7A/roXaMCYquCARs5KaitAT5tcjAgMBAAGjYzBhMA4GA1UdDwEB
/wQEAwIBBjAPBgNVHRMBAf8EBTADAQH/MB0GA1UdDgQWBBSEcHEsBDvQkoO1+3x/
sGEMYhZxdDAfBgNVHSMEGDAWgBSEcHEsBDvQkoO1+3x/sGEMYhZxdDANBgkqhkiG
9w0BAQUFAAOCAgEAbDXgB9s6FTAAfzj9bbd6hYSHG3J4M+4AgcBRM2/zqOg7MP3v
GcXSlYO3gI8bef+s5vL19qBxFldyWBp15Ew9s0u1PYzZZhpffMAsHywKPvuEIM7I
fY6b5v5LBq8QT9uXPM0E3zwvwsYpwHAZs1qe/g99g5WDpdsB2MSRb+4la82OLrJp
iB/pV+9MxBjN0kJOwRm9jclO57MF+m7FMgrD8L3s00TUgAgmLRLLG6SdCcoLAuta
tlRRrJBjd3ZvMzX+h9vSwLzqW8Wb6UzCgiinT2LfGE8ci5N68zKJCj7BvYpFKfh/
GEyhd+HitOtQMWt31XgSlckC12EDE26+/t2DNStM3EWBbxZ/Kbhvu232FW070hT5
lCSG3063npMulCXmsbXAlsmjVs+VFX9DQfA+wu2NFsF72/84SAi0OUOBZTG6eNF3
6RrwWhgF29uRyuj5jC5uqYy6aZYBLvpq9d6/HFPKFCqRCyry+rkH622dWa4Ia/ph
lXWcdksipwzEZueqntqEdvyOUFnCVbjhAeVUhX8yT2PgdHeWrms12woM2ic7x8g7
utRBOqpc7XELEIgFniHFmcM64qLe+fXGzpoWvhhBJBTuR3by27GY8g79GK6n8PFV
Vnqa8oRQd/IIx/Q/9RsDl0lB46Erw+71vLydKzg5EHRbGJIq+sBLRsD/RlY=
-----END CERTIFICATE-----
