Certificate:
    Data:
        Version: 3 (0x2)
        Serial Number: 7 (0x7)
        Signature Algorithm: sha1WithRSAEncryption
        Issuer: DC=io, DC=realm, O=Realm, OU=Realm Test Signing CA, CN=Realm Test Signing CA
        Validity
            Not Before: May 17 23:28:48 2017 GMT
            Not After : May 17 23:28:48 2019 GMT
        Subject: DC=127.0.0.1, O=Realm, OU=Realm, CN=127.0.0.1
        Subject Public Key Info:
            Public Key Algorithm: rsaEncryption
            RSA Public Key: (2048 bit)
                Modulus (2048 bit):
                    00:b7:8c:99:7b:6b:5b:29:80:9c:99:b7:fe:b8:1e:
                    06:6c:4d:58:bd:38:b6:cc:13:6a:ff:fd:f6:26:a0:
                    71:d2:8a:94:ea:06:be:e1:b8:5b:03:5e:96:8e:61:
                    19:0f:80:5f:b8:51:43:97:00:38:67:47:0e:09:b8:
                    ab:80:d1:9c:81:b8:81:db:0b:b4:c5:de:7a:3c:f5:
                    9c:cb:bf:2b:12:fe:b1:9d:4e:a0:4a:ab:ae:c4:11:
                    19:54:c5:17:ed:58:c3:72:f0:e5:46:dc:21:41:4c:
                    63:1d:31:85:f3:ba:f6:ad:69:3e:d8:86:9d:c4:56:
                    3b:52:47:5d:24:dd:40:af:f9:fa:03:4c:4e:2d:5b:
                    d2:34:dc:f0:a4:19:13:14:f6:6c:7c:1c:47:bd:7d:
                    79:a2:09:61:ad:3f:8d:4e:59:c5:ae:a7:2b:39:00:
                    e9:34:68:6c:6f:d8:60:a2:a9:24:33:1c:9f:80:b4:
                    c6:8e:ba:37:98:71:3d:dd:82:66:d8:e0:c2:81:cc:
                    4b:d1:5d:58:26:cf:85:0a:ac:fd:08:a5:40:50:ff:
                    f9:73:e8:27:18:7b:70:75:73:2a:23:c7:d7:15:be:
                    ca:ce:57:c9:ee:bb:6d:b4:d8:fd:c7:22:47:28:9b:
                    00:5e:4b:af:82:63:c3:d7:6a:74:4e:60:17:94:6a:
                    fb:83
                Exponent: 65537 (0x10001)
        X509v3 extensions:
            X509v3 Key Usage: critical
                Digital Signature, Key Encipherment
            X509v3 Basic Constraints: 
                CA:FALSE
            X509v3 Extended Key Usage: 
                TLS Web Server Authentication, TLS Web Client Authentication
            X509v3 Subject Key Identifier: 
                C6:BD:F4:49:F5:2E:76:52:44:F1:E2:CE:2E:6C:F9:59:B1:56:14:AD
            X509v3 Authority Key Identifier: 
                keyid:27:79:E1:DA:F1:15:D0:E9:E5:86:30:87:E7:1F:5F:CF:27:3A:70:B4

            X509v3 Subject Alternative Name: 
                IP Address:127.0.0.1
    Signature Algorithm: sha1WithRSAEncryption
        9b:3f:74:f4:69:72:6b:5b:75:88:b7:10:5f:e0:73:b2:82:be:
        dc:71:1b:a3:d6:a4:6e:ae:a6:5f:51:78:5c:80:64:20:21:20:
        13:16:08:d0:ae:15:f6:52:24:d9:23:5c:24:ed:62:3b:0e:e6:
        5f:00:4b:bf:a1:94:34:2a:fb:2a:46:5f:54:e6:3b:7f:be:81:
        5b:df:e8:78:a6:1e:ce:e2:87:b9:8b:e4:d8:04:1f:18:c4:29:
        80:7a:21:a9:56:c5:29:ee:4e:28:33:fa:8d:92:46:a2:31:31:
        c5:f9:31:19:ed:1d:f6:c7:75:82:65:b6:1a:ad:bc:34:4a:f3:
        18:05:a0:a3:d4:9a:50:f2:ef:bb:c4:2f:89:10:95:68:17:6a:
        85:76:ce:88:8c:19:cf:d7:aa:70:c3:d0:59:9b:9a:c0:d0:a8:
        d0:d3:cd:f5:f0:8e:5e:19:ab:a1:ae:54:dc:07:ac:6d:6e:d8:
        f0:ee:65:47:de:29:1e:76:1b:1d:0e:62:f5:dd:1d:f6:6e:ad:
        27:2e:8d:be:c4:a8:41:0b:b1:44:22:3d:29:b3:57:74:3e:3b:
        41:28:19:8d:48:ed:65:05:5b:8e:17:a7:ab:45:24:d9:95:00:
        e4:04:e7:6c:d8:6b:6b:2a:89:5e:1f:fb:b4:f2:1c:20:55:ea:
        f5:40:99:58:a2:de:c3:83:e5:01:70:f8:53:e9:8d:95:ba:0b:
        20:d0:99:e6:b4:31:05:55:00:9c:f7:f3:96:7c:74:5b:7d:c7:
        6a:ae:ec:90:f8:0f:f2:f0:58:ec:80:0c:79:04:b0:f3:69:cd:
        e5:41:f2:f5:fc:44:ba:d9:4f:3f:32:fe:69:f3:6e:1f:32:94:
        62:78:17:76:dc:d5:0c:19:a6:8b:97:70:e9:19:39:a8:fa:b1:
        00:a6:18:6f:4b:2d:38:2f:1d:96:0b:87:98:86:c1:2c:75:44:
        3c:0e:e1:eb:f4:c4:4e:02:c7:9f:f7:cc:30:8a:72:23:bf:44:
        7c:7c:3f:f7:7c:b1:b1:d7:aa:4b:e4:1e:dd:ca:fd:5a:8d:2e:
        aa:ff:49:af:a5:63:6f:88:31:26:7d:b3:a4:e3:4d:4d:45:d6:
        44:7b:12:a8:6e:06:bb:81:c0:80:a4:5f:95:3b:d4:a5:4a:01:
        1d:00:0e:7b:5d:20:29:97:d0:d6:88:73:f1:89:c1:01:54:85:
        9b:9c:ef:41:6d:f9:b6:83:cc:65:ac:34:ca:bf:88:fc:34:4f:
        7f:62:30:e2:d9:02:eb:c7:58:86:90:6f:e4:7e:5f:20:45:f2:
        c4:a0:7e:ad:92:5a:85:8f:08:90:3d:e8:65:be:54:79:e2:62:
        3c:5d:8e:57:36:2a:17:bb
-----BEGIN CERTIFICATE-----
MIIE1DCCArygAwIBAgIBBzANBgkqhkiG9w0BAQUFADB7MRIwEAYKCZImiZPyLGQB
GRYCaW8xFTATBgoJkiaJk/IsZAEZFgVyZWFsbTEOMAwGA1UECgwFUmVhbG0xHjAc
BgNVBAsMFVJlYWxtIFRlc3QgU2lnbmluZyBDQTEeMBwGA1UEAwwVUmVhbG0gVGVz
dCBTaWduaW5nIENBMB4XDTE3MDUxNzIzMjg0OFoXDTE5MDUxNzIzMjg0OFowTzEZ
MBcGCgmSJomT8ixkARkWCTEyNy4wLjAuMTEOMAwGA1UECgwFUmVhbG0xDjAMBgNV
BAsMBVJlYWxtMRIwEAYDVQQDDAkxMjcuMC4wLjEwggEiMA0GCSqGSIb3DQEBAQUA
A4IBDwAwggEKAoIBAQC3jJl7a1spgJyZt/64HgZsTVi9OLbME2r//fYmoHHSipTq
Br7huFsDXpaOYRkPgF+4UUOXADhnRw4JuKuA0ZyBuIHbC7TF3no89ZzLvysS/rGd
TqBKq67EERlUxRftWMNy8OVG3CFBTGMdMYXzuvataT7Yhp3EVjtSR10k3UCv+foD
TE4tW9I03PCkGRMU9mx8HEe9fXmiCWGtP41OWcWupys5AOk0aGxv2GCiqSQzHJ+A
tMaOujeYcT3dgmbY4MKBzEvRXVgmz4UKrP0IpUBQ//lz6CcYe3B1cyojx9cVvsrO
V8nuu2202P3HIkcomwBeS6+CY8PXanROYBeUavuDAgMBAAGjgY4wgYswDgYDVR0P
AQH/BAQDAgWgMAkGA1UdEwQCMAAwHQYDVR0lBBYwFAYIKwYBBQUHAwEGCCsGAQUF
BwMCMB0GA1UdDgQWBBTGvfRJ9S52UkTx4s4ubPlZsVYUrTAfBgNVHSMEGDAWgBQn
eeHa8RXQ6eWGMIfnH1/PJzpwtDAPBgNVHREECDAGhwR/AAABMA0GCSqGSIb3DQEB
BQUAA4ICAQCbP3T0aXJrW3WItxBf4HOygr7ccRuj1qRurqZfUXhcgGQgISATFgjQ
rhX2UiTZI1wk7WI7DuZfAEu/oZQ0KvsqRl9U5jt/voFb3+h4ph7O4oe5i+TYBB8Y
xCmAeiGpVsUp7k4oM/qNkkaiMTHF+TEZ7R32x3WCZbYarbw0SvMYBaCj1JpQ8u+7
xC+JEJVoF2qFds6IjBnP16pww9BZm5rA0KjQ08318I5eGauhrlTcB6xtbtjw7mVH
3ikedhsdDmL13R32bq0nLo2+xKhBC7FEIj0ps1d0PjtBKBmNSO1lBVuOF6erRSTZ
lQDkBOds2GtrKoleH/u08hwgVer1QJlYot7Dg+UBcPhT6Y2Vugsg0JnmtDEFVQCc
9/OWfHRbfcdqruyQ+A/y8FjsgAx5BLDzac3lQfL1/ES62U8/Mv5p824fMpRieBd2
3NUMGaaLl3DpGTmo+rEAphhvSy04Lx2WC4eYhsEsdUQ8DuHr9MROAsef98wwinIj
v0R8fD/3fLGx16pL5B7dyv1ajS6q/0mvpWNviDEmfbOk401NRdZEexKobga7gcCA
pF+VO9SlSgEdAA57XSApl9DWiHPxicEBVIWbnO9Bbfm2g8xlrDTKv4j8NE9/YjDi
2QLrx1iGkG/kfl8gRfLEoH6tklqFjwiQPehlvlR54mI8XY5XNioXuw==
-----END CERTIFICATE-----
Certificate:
    Data:
        Version: 3 (0x2)
        Serial Number: 2 (0x2)
    Signature Algorithm: sha1WithRSAEncryption
        Issuer: DC=io, DC=realm, O=Realm, OU=Realm Test Root CA, CN=Realm Test Root CA
        Validity
            Not Before: Sep  7 10:17:28 2016 GMT
            Not After : Sep  7 10:17:28 2026 GMT
        Subject: DC=io, DC=realm, O=Realm, OU=Realm Test Signing CA, CN=Realm Test Signing CA
        Subject Public Key Info:
            Public Key Algorithm: rsaEncryption
                Public-Key: (4096 bit)
                Modulus:
                    00:bf:5b:5a:92:de:53:af:73:80:e1:3f:22:55:75:
                    38:7d:9e:3b:65:49:aa:d3:a7:ac:04:be:4d:a5:c2:
                    7d:03:30:c9:d8:41:d2:00:0a:cd:df:a3:68:a5:13:
                    92:0a:71:22:c5:09:d4:75:97:73:a6:fa:37:64:a7:
                    61:55:84:88:c1:be:eb:92:e0:a6:1b:00:04:c4:31:
                    fd:4a:e9:14:56:c8:ad:0b:5c:73:c8:55:1c:e6:60:
                    b1:3a:e3:c2:1d:41:1a:6d:57:12:df:da:c2:fe:40:
                    e7:d1:a5:71:29:71:cb:0d:12:d5:c6:be:e8:ab:62:
                    9c:11:70:b5:de:f1:20:b6:bc:05:af:7a:3f:e4:df:
                    74:33:d6:bb:a3:33:59:f3:3a:a0:af:2d:ea:e7:16:
                    c8:8f:25:f1:fb:27:73:80:46:e3:44:5b:b8:f5:4c:
                    ba:8e:61:6d:5f:2c:c0:8f:e8:d2:bd:3a:e8:0d:fa:
                    16:de:32:19:84:c8:6c:ad:11:14:5c:ce:44:be:46:
                    be:f0:7b:83:27:21:f1:49:f5:ba:e5:bc:59:07:b0:
                    c2:fb:4f:7e:56:76:eb:cb:14:f1:50:d6:b3:83:10:
                    2b:b1:d3:80:68:98:45:67:70:9e:1b:ef:ff:28:d0:
                    ef:1a:38:28:64:16:84:5a:d1:9f:05:7f:15:50:6a:
                    ce:ac:08:25:e4:3f:d6:df:09:d9:59:b2:05:d9:b7:
                    e3:94:ae:f6:c6:04:69:2e:d5:47:79:54:92:fb:72:
                    f2:4c:09:2b:64:3a:3e:d1:30:76:0c:33:65:0a:08:
                    55:34:44:83:05:e9:1e:51:c2:58:70:44:30:6c:ef:
                    0a:e0:b0:e2:10:2b:e1:55:29:24:03:68:61:bb:44:
                    58:ea:ad:03:b3:a9:0f:13:44:ff:ea:24:d3:7b:bd:
                    25:78:57:79:7b:e4:4b:9e:bc:32:33:63:d5:f7:25:
                    39:f7:c5:31:8d:9f:f2:76:a3:6b:bb:5b:a4:dd:cc:
                    96:44:b4:44:9d:50:ef:2e:64:29:02:a3:c7:52:f7:
                    36:92:c5:fa:fb:75:dd:25:67:3e:46:37:e3:9d:dc:
                    de:f6:e5:6a:0a:95:7e:e9:90:3e:c9:b1:f8:74:07:
                    b9:ff:f2:24:c9:84:f0:9f:3c:a7:ce:ca:64:be:77:
                    1e:7c:93:29:6f:c8:8e:8d:74:d3:a8:1d:e1:db:9b:
                    8b:c3:27:d8:0d:03:fc:7e:3e:25:19:6a:b8:a5:97:
                    d0:7a:c3:13:33:bc:3a:8c:c7:25:e9:f9:cf:4a:c5:
                    c3:26:63:42:ef:58:d7:42:06:30:8a:20:c8:cd:6a:
                    40:8b:fa:88:e0:54:ed:60:09:69:26:12:43:b5:f2:
                    93:6c:5b
                Exponent: 65537 (0x10001)
        X509v3 extensions:
            X509v3 Key Usage: critical
                Certificate Sign, CRL Sign
            X509v3 Basic Constraints: critical
                CA:TRUE, pathlen:0
            X509v3 Subject Key Identifier: 
                27:79:E1:DA:F1:15:D0:E9:E5:86:30:87:E7:1F:5F:CF:27:3A:70:B4
            X509v3 Authority Key Identifier: 
                keyid:84:70:71:2C:04:3B:D0:92:83:B5:FB:7C:7F:B0:61:0C:62:16:71:74

    Signature Algorithm: sha1WithRSAEncryption
         36:05:84:8c:88:21:08:a7:e2:bd:41:a8:27:7f:b7:c2:9a:86:
         d7:21:fe:ed:4c:51:d1:29:df:35:4a:0e:ea:a0:b5:6c:cc:28:
         2f:5e:bd:9f:97:68:be:aa:2a:ff:54:91:9e:ef:04:5d:0d:ec:
         e7:98:35:10:78:50:b6:1f:17:96:a9:5e:9a:60:fb:68:e9:06:
         7d:53:8c:58:b7:9a:47:e0:9f:c8:d1:43:1a:74:41:3f:ab:03:
         21:35:88:8e:34:3a:25:b7:98:67:24:8b:d4:14:88:57:1c:99:
         df:08:0c:bd:57:9f:53:db:3a:47:a4:e5:4c:29:38:e2:82:39:
         45:ea:62:ca:1b:d8:95:cb:0a:e3:65:10:97:c7:10:d7:8b:2d:
         db:fa:16:c6:c4:0c:81:26:e6:6f:f1:da:fb:79:c0:12:27:58:
         9a:2b:95:a0:bd:73:88:ad:f5:ad:9b:cd:49:3d:ad:2c:02:84:
         f8:88:be:3c:bf:d7:a2:28:e8:09:1e:7c:0d:b0:56:ad:e6:e3:
         a7:11:56:58:66:83:dd:80:31:56:a6:15:45:e1:e3:52:49:f2:
         f8:4c:3c:60:fd:d6:1b:45:61:ec:52:c1:d9:b9:da:b0:5d:5c:
         3b:7f:ef:34:dd:48:26:19:5a:66:ad:b5:a7:87:6b:73:e8:ea:
         d3:5d:cd:d1:3f:ac:77:e4:59:8d:4d:95:38:2f:e8:17:ff:8f:
         67:c8:f8:5d:8e:86:b7:78:50:25:62:35:b9:07:15:f6:eb:65:
         98:80:96:0b:d2:14:cb:54:1a:75:0c:ab:d9:c2:99:1b:20:da:
         e3:a4:77:68:ef:75:cc:44:7f:66:f4:47:8c:7a:03:21:b6:6c:
         c7:00:b2:50:15:84:5c:87:2a:fb:03:3a:d7:2d:df:52:96:80:
         b6:c0:3d:a0:4b:65:67:5e:f3:bd:41:fe:f4:62:3a:de:0f:30:
         8d:47:bf:8a:0b:f8:0e:d8:7b:84:93:60:e6:73:a9:60:11:f3:
         5a:16:2c:2a:58:c0:dc:78:8f:66:c8:10:90:d5:da:03:35:e9:
         a7:22:8a:04:14:cf:e1:fb:c9:46:5f:cc:29:ef:c7:22:bd:65:
         a4:8a:47:e0:d5:10:0d:12:4c:a3:72:11:e6:5f:9e:5b:87:38:
         eb:48:74:dd:86:26:ab:45:61:63:45:52:21:a9:35:65:84:30:
         49:85:68:90:b6:23:0c:f0:10:7e:de:e1:e8:3d:94:6d:ff:44:
         a0:2e:86:1c:4c:bb:ec:72:85:3b:d0:6d:49:69:47:a9:61:1f:
         c5:39:cb:d6:7a:06:e9:41:52:df:00:00:c0:08:3f:21:bd:44:
         52:c4:78:a5:fe:e5:33:fe
-----BEGIN CERTIFICATE-----
MIIF0TCCA7mgAwIBAgIBAjANBgkqhkiG9w0BAQUFADB1MRIwEAYKCZImiZPyLGQB
GRYCaW8xFTATBgoJkiaJk/IsZAEZFgVyZWFsbTEOMAwGA1UECgwFUmVhbG0xGzAZ
BgNVBAsMElJlYWxtIFRlc3QgUm9vdCBDQTEbMBkGA1UEAwwSUmVhbG0gVGVzdCBS
b290IENBMB4XDTE2MDkwNzEwMTcyOFoXDTI2MDkwNzEwMTcyOFowezESMBAGCgmS
JomT8ixkARkWAmlvMRUwEwYKCZImiZPyLGQBGRYFcmVhbG0xDjAMBgNVBAoMBVJl
YWxtMR4wHAYDVQQLDBVSZWFsbSBUZXN0IFNpZ25pbmcgQ0ExHjAcBgNVBAMMFVJl
YWxtIFRlc3QgU2lnbmluZyBDQTCCAiIwDQYJKoZIhvcNAQEBBQADggIPADCCAgoC
ggIBAL9bWpLeU69zgOE/IlV1OH2eO2VJqtOnrAS+TaXCfQMwydhB0gAKzd+jaKUT
kgpxIsUJ1HWXc6b6N2SnYVWEiMG+65LgphsABMQx/UrpFFbIrQtcc8hVHOZgsTrj
wh1BGm1XEt/awv5A59GlcSlxyw0S1ca+6KtinBFwtd7xILa8Ba96P+TfdDPWu6Mz
WfM6oK8t6ucWyI8l8fsnc4BG40RbuPVMuo5hbV8swI/o0r066A36Ft4yGYTIbK0R
FFzORL5GvvB7gych8Un1uuW8WQewwvtPflZ268sU8VDWs4MQK7HTgGiYRWdwnhvv
/yjQ7xo4KGQWhFrRnwV/FVBqzqwIJeQ/1t8J2VmyBdm345Su9sYEaS7VR3lUkvty
8kwJK2Q6PtEwdgwzZQoIVTREgwXpHlHCWHBEMGzvCuCw4hAr4VUpJANoYbtEWOqt
A7OpDxNE/+ok03u9JXhXeXvkS568MjNj1fclOffFMY2f8naja7tbpN3MlkS0RJ1Q
7y5kKQKjx1L3NpLF+vt13SVnPkY3453c3vblagqVfumQPsmx+HQHuf/yJMmE8J88
p87KZL53HnyTKW/Ijo1006gd4dubi8Mn2A0D/H4+JRlquKWX0HrDEzO8OozHJen5
z0rFwyZjQu9Y10IGMIogyM1qQIv6iOBU7WAJaSYSQ7Xyk2xbAgMBAAGjZjBkMA4G
A1UdDwEB/wQEAwIBBjASBgNVHRMBAf8ECDAGAQH/AgEAMB0GA1UdDgQWBBQneeHa
8RXQ6eWGMIfnH1/PJzpwtDAfBgNVHSMEGDAWgBSEcHEsBDvQkoO1+3x/sGEMYhZx
dDANBgkqhkiG9w0BAQUFAAOCAgEANgWEjIghCKfivUGoJ3+3wpqG1yH+7UxR0Snf
NUoO6qC1bMwoL169n5dovqoq/1SRnu8EXQ3s55g1EHhQth8XlqlemmD7aOkGfVOM
WLeaR+CfyNFDGnRBP6sDITWIjjQ6JbeYZySL1BSIVxyZ3wgMvVefU9s6R6TlTCk4
4oI5RepiyhvYlcsK42UQl8cQ14st2/oWxsQMgSbmb/Ha+3nAEidYmiuVoL1ziK31
rZvNST2tLAKE+Ii+PL/XoijoCR58DbBWrebjpxFWWGaD3YAxVqYVReHjUkny+Ew8
YP3WG0Vh7FLB2bnasF1cO3/vNN1IJhlaZq21p4drc+jq013N0T+sd+RZjU2VOC/o
F/+PZ8j4XY6Gt3hQJWI1uQcV9utlmICWC9IUy1QadQyr2cKZGyDa46R3aO91zER/
ZvRHjHoDIbZsxwCyUBWEXIcq+wM61y3fUpaAtsA9oEtlZ17zvUH+9GI63g8wjUe/
igv4Dth7hJNg5nOpYBHzWhYsKljA3HiPZsgQkNXaAzXppyKKBBTP4fvJRl/MKe/H
Ir1lpIpH4NUQDRJMo3IR5l+eW4c460h03YYmq0VhY0VSIak1ZYQwSYVokLYjDPAQ
ft7h6D2Ubf9EoC6GHEy77HKFO9BtSWlHqWEfxTnL1noG6UFS3wAAwAg/Ib1EUsR4
pf7lM/4=
-----END CERTIFICATE-----
